target datalayout = "e-m:e-p270:32:32-p271:32:32-p272:64:64-i64:64-i128:128-f80:128-n8:16:32:64-S128"
target triple = "x86_64-pc-linux-gnu"

%"class.std::vector" = type { %"struct.std::_Vector_base" }
%"struct.std::_Vector_base" = type { %"struct.std::_Vector_base<float, std::allocator<float>>::_Vector_impl" }
%"struct.std::_Vector_base<float, std::allocator<float>>::_Vector_impl" = type { %"struct.std::_Vector_base<float, std::allocator<float>>::_Vector_impl_data" }
%"struct.std::_Vector_base<float, std::allocator<float>>::_Vector_impl_data" = type { ptr, ptr, ptr }
%"struct.gmx::RealFunctionvalueAtCoordinate" = type <{ %"class.std::vector", float, [4 x i8] }>
%"class.gmx::NelderMeadSimplex" = type { %"class.std::__cxx11::list", %"class.std::vector", %"class.std::vector" }
%"class.std::__cxx11::list" = type { %"class.std::__cxx11::_List_base" }
%"class.std::__cxx11::_List_base" = type { %"struct.std::__cxx11::_List_base<gmx::RealFunctionvalueAtCoordinate, std::allocator<gmx::RealFunctionvalueAtCoordinate>>::_List_impl" }
%"struct.std::__cxx11::_List_base<gmx::RealFunctionvalueAtCoordinate, std::allocator<gmx::RealFunctionvalueAtCoordinate>>::_List_impl" = type { %"struct.std::__detail::_List_node_header" }
%"struct.std::__detail::_List_node_header" = type { %"struct.std::__detail::_List_node_base", i64 }
%"struct.std::__detail::_List_node_base" = type { ptr, ptr }
%"struct.std::_List_node" = type { %"struct.std::__detail::_List_node_base", %"struct.__gnu_cxx::__aligned_membuf" }
%"struct.__gnu_cxx::__aligned_membuf" = type { [32 x i8] }
%"struct.std::_List_const_iterator" = type { ptr }
%"class.std::reverse_iterator" = type { %"struct.std::_List_const_iterator" }

; Function Attrs: mustprogress nounwind uwtable
define linkonce_odr noundef ptr @_ZNK9__gnu_cxx16__aligned_membufIN3gmx29RealFunctionvalueAtCoordinateEE7_M_addrEv(ptr noundef nonnull align 8 dereferenceable(32) %0) #1 comdat align 2 {
  %2 = alloca ptr, align 8
  store ptr %0, ptr %2, align 8
  %3 = load ptr, ptr %2, align 8
  %4 = getelementptr inbounds %"struct.__gnu_cxx::__aligned_membuf", ptr %3, i32 0, i32 0
  ret ptr %4
}

; Function Attrs: mustprogress nounwind uwtable
define linkonce_odr noundef ptr @_ZNK9__gnu_cxx16__aligned_membufIN3gmx29RealFunctionvalueAtCoordinateEE6_M_ptrEv(ptr noundef nonnull align 8 dereferenceable(32) %0) #1 comdat align 2 {
  %2 = alloca ptr, align 8
  store ptr %0, ptr %2, align 8
  %3 = load ptr, ptr %2, align 8
  %4 = call noundef ptr @_ZNK9__gnu_cxx16__aligned_membufIN3gmx29RealFunctionvalueAtCoordinateEE7_M_addrEv(ptr noundef nonnull align 8 dereferenceable(32) %3) #12
  ret ptr %4
}

; Function Attrs: mustprogress nounwind uwtable
define linkonce_odr noundef nonnull align 8 dereferenceable(8) ptr @_ZNSt20_List_const_iteratorIN3gmx29RealFunctionvalueAtCoordinateEEppEv(ptr noundef nonnull align 8 dereferenceable(8) %0) #1 comdat align 2 {
  %2 = alloca ptr, align 8
  store ptr %0, ptr %2, align 8
  %3 = load ptr, ptr %2, align 8
  %4 = getelementptr inbounds %"struct.std::_List_const_iterator", ptr %3, i32 0, i32 0
  %5 = load ptr, ptr %4, align 8
  %6 = getelementptr inbounds %"struct.std::__detail::_List_node_base", ptr %5, i32 0, i32 0
  %7 = load ptr, ptr %6, align 8
  %8 = getelementptr inbounds %"struct.std::_List_const_iterator", ptr %3, i32 0, i32 0
  store ptr %7, ptr %8, align 8
  ret ptr %3
}

; Function Attrs: mustprogress nounwind uwtable
define linkonce_odr noundef ptr @_ZNKSt10_List_nodeIN3gmx29RealFunctionvalueAtCoordinateEE9_M_valptrEv(ptr noundef nonnull align 8 dereferenceable(48) %0) #1 comdat align 2 {
  %2 = alloca ptr, align 8
  store ptr %0, ptr %2, align 8
  %3 = load ptr, ptr %2, align 8
  %4 = getelementptr inbounds %"struct.std::_List_node", ptr %3, i32 0, i32 1
  %5 = call noundef ptr @_ZNK9__gnu_cxx16__aligned_membufIN3gmx29RealFunctionvalueAtCoordinateEE6_M_ptrEv(ptr noundef nonnull align 8 dereferenceable(32) %4) #12
  ret ptr %5
}

; Function Attrs: mustprogress nounwind uwtable
define linkonce_odr noundef nonnull align 8 dereferenceable(8) ptr @_ZNSt16reverse_iteratorISt20_List_const_iteratorIN3gmx29RealFunctionvalueAtCoordinateEEEmmEv(ptr noundef nonnull align 8 dereferenceable(8) %0) #1 comdat align 2 {
  %2 = alloca ptr, align 8
  store ptr %0, ptr %2, align 8
  %3 = load ptr, ptr %2, align 8
  %4 = getelementptr inbounds %"class.std::reverse_iterator", ptr %3, i32 0, i32 0
  %5 = call noundef nonnull align 8 dereferenceable(8) ptr @_ZNSt20_List_const_iteratorIN3gmx29RealFunctionvalueAtCoordinateEEppEv(ptr noundef nonnull align 8 dereferenceable(8) %4) #12
  ret ptr %3
}

; Function Attrs: mustprogress nounwind uwtable
define linkonce_odr noundef nonnull align 8 dereferenceable(8) ptr @_ZNSt16reverse_iteratorISt20_List_const_iteratorIN3gmx29RealFunctionvalueAtCoordinateEEEppEv(ptr noundef nonnull align 8 dereferenceable(8) %0) #1 comdat align 2 {
  %2 = alloca ptr, align 8
  store ptr %0, ptr %2, align 8
  %3 = load ptr, ptr %2, align 8
  %4 = getelementptr inbounds %"class.std::reverse_iterator", ptr %3, i32 0, i32 0
  %5 = call noundef nonnull align 8 dereferenceable(8) ptr @_ZNSt20_List_const_iteratorIN3gmx29RealFunctionvalueAtCoordinateEEmmEv(ptr noundef nonnull align 8 dereferenceable(8) %4) #12
  ret ptr %3
}

; Function Attrs: mustprogress nounwind uwtable
define linkonce_odr void @_ZNSt20_List_const_iteratorIN3gmx29RealFunctionvalueAtCoordinateEEC2EPKNSt8__detail15_List_node_baseE(ptr noundef nonnull align 8 dereferenceable(8) %0, ptr noundef %1) unnamed_addr #1 comdat align 2 {
  %3 = alloca ptr, align 8
  %4 = alloca ptr, align 8
  store ptr %0, ptr %3, align 8
  store ptr %1, ptr %4, align 8
  %5 = load ptr, ptr %3, align 8
  %6 = getelementptr inbounds %"struct.std::_List_const_iterator", ptr %5, i32 0, i32 0
  %7 = load ptr, ptr %4, align 8
  store ptr %7, ptr %6, align 8
  ret void
}

; Function Attrs: mustprogress nounwind uwtable
define linkonce_odr noundef ptr @_ZNKSt20_List_const_iteratorIN3gmx29RealFunctionvalueAtCoordinateEEptEv(ptr noundef nonnull align 8 dereferenceable(8) %0) #1 comdat align 2 {
  %2 = alloca ptr, align 8
  store ptr %0, ptr %2, align 8
  %3 = load ptr, ptr %2, align 8
  %4 = getelementptr inbounds %"struct.std::_List_const_iterator", ptr %3, i32 0, i32 0
  %5 = load ptr, ptr %4, align 8
  %6 = call noundef ptr @_ZNKSt10_List_nodeIN3gmx29RealFunctionvalueAtCoordinateEE9_M_valptrEv(ptr noundef nonnull align 8 dereferenceable(48) %5)
  ret ptr %6
}

; Function Attrs: mustprogress uwtable
define linkonce_odr void @_ZSt9__advanceISt16reverse_iteratorISt20_List_const_iteratorIN3gmx29RealFunctionvalueAtCoordinateEEElEvRT_T0_St26bidirectional_iterator_tag(ptr noundef nonnull align 8 dereferenceable(8) %0, i64 noundef %1) #0 comdat {
  %3 = alloca ptr, align 8
  %4 = alloca i64, align 8
  store ptr %0, ptr %3, align 8
  store i64 %1, ptr %4, align 8
  %5 = load i64, ptr %4, align 8
  %6 = icmp sgt i64 %5, 0
  br i1 %6, label %7, label %16

7:                                                ; preds = %2
  br label %8

8:                                                ; preds = %12, %7
  %9 = load i64, ptr %4, align 8
  %10 = add nsw i64 %9, -1
  store i64 %10, ptr %4, align 8
  %11 = icmp ne i64 %9, 0
  br i1 %11, label %12, label %15

12:                                               ; preds = %8
  %13 = load ptr, ptr %3, align 8
  %14 = call noundef nonnull align 8 dereferenceable(8) ptr @_ZNSt16reverse_iteratorISt20_List_const_iteratorIN3gmx29RealFunctionvalueAtCoordinateEEEppEv(ptr noundef nonnull align 8 dereferenceable(8) %13)
  br label %8, !llvm.loop !13

15:                                               ; preds = %8
  br label %25

16:                                               ; preds = %2
  br label %17

17:                                               ; preds = %21, %16
  %18 = load i64, ptr %4, align 8
  %19 = add nsw i64 %18, 1
  store i64 %19, ptr %4, align 8
  %20 = icmp ne i64 %18, 0
  br i1 %20, label %21, label %24

21:                                               ; preds = %17
  %22 = load ptr, ptr %3, align 8
  %23 = call noundef nonnull align 8 dereferenceable(8) ptr @_ZNSt16reverse_iteratorISt20_List_const_iteratorIN3gmx29RealFunctionvalueAtCoordinateEEEmmEv(ptr noundef nonnull align 8 dereferenceable(8) %22)
  br label %17, !llvm.loop !14

24:                                               ; preds = %17
  br label %25

25:                                               ; preds = %24, %15
  ret void
}

; Function Attrs: mustprogress nounwind uwtable
define linkonce_odr void @_ZSt19__iterator_categoryISt16reverse_iteratorISt20_List_const_iteratorIN3gmx29RealFunctionvalueAtCoordinateEEEENSt15iterator_traitsIT_E17iterator_categoryERKS7_(ptr noundef nonnull align 8 dereferenceable(8) %0) #1 comdat {
  %2 = alloca ptr, align 8
  store ptr %0, ptr %2, align 8
  ret void
}

; Function Attrs: mustprogress nounwind uwtable
define linkonce_odr void @_ZNSt16reverse_iteratorISt20_List_const_iteratorIN3gmx29RealFunctionvalueAtCoordinateEEEC2ES3_(ptr noundef nonnull align 8 dereferenceable(8) %0, ptr %1) unnamed_addr #1 comdat align 2 {
  %3 = alloca %"struct.std::_List_const_iterator", align 8
  %4 = alloca ptr, align 8
  %5 = getelementptr inbounds %"struct.std::_List_const_iterator", ptr %3, i32 0, i32 0
  store ptr %1, ptr %5, align 8
  store ptr %0, ptr %4, align 8
  %6 = load ptr, ptr %4, align 8
  %7 = getelementptr inbounds %"class.std::reverse_iterator", ptr %6, i32 0, i32 0
  call void @llvm.memcpy.p0.p0.i64(ptr align 8 %7, ptr align 8 %3, i64 8, i1 false)
  ret void
}

; Function Attrs: mustprogress nounwind uwtable
define linkonce_odr ptr @_ZNKSt7__cxx114listIN3gmx29RealFunctionvalueAtCoordinateESaIS2_EE3endEv(ptr noundef nonnull align 8 dereferenceable(24) %0) #1 comdat align 2 {
  %2 = alloca %"struct.std::_List_const_iterator", align 8
  %3 = alloca ptr, align 8
  store ptr %0, ptr %3, align 8
  %4 = load ptr, ptr %3, align 8
  %5 = getelementptr inbounds %"class.std::__cxx11::_List_base", ptr %4, i32 0, i32 0
  %6 = getelementptr inbounds %"struct.std::__cxx11::_List_base<gmx::RealFunctionvalueAtCoordinate, std::allocator<gmx::RealFunctionvalueAtCoordinate>>::_List_impl", ptr %5, i32 0, i32 0
  call void @_ZNSt20_List_const_iteratorIN3gmx29RealFunctionvalueAtCoordinateEEC2EPKNSt8__detail15_List_node_baseE(ptr noundef nonnull align 8 dereferenceable(8) %2, ptr noundef %6) #12
  %7 = getelementptr inbounds %"struct.std::_List_const_iterator", ptr %2, i32 0, i32 0
  %8 = load ptr, ptr %7, align 8
  ret ptr %8
}

; Function Attrs: mustprogress nounwind uwtable
define linkonce_odr noundef ptr @_ZNSt16reverse_iteratorISt20_List_const_iteratorIN3gmx29RealFunctionvalueAtCoordinateEEE13_S_to_pointerIS3_EEPKS2_T_(ptr %0) #1 comdat align 2 {
  %2 = alloca %"struct.std::_List_const_iterator", align 8
  %3 = getelementptr inbounds %"struct.std::_List_const_iterator", ptr %2, i32 0, i32 0
  store ptr %0, ptr %3, align 8
  %4 = call noundef ptr @_ZNKSt20_List_const_iteratorIN3gmx29RealFunctionvalueAtCoordinateEEptEv(ptr noundef nonnull align 8 dereferenceable(8) %2) #12
  ret ptr %4
}

; Function Attrs: mustprogress nounwind uwtable
define linkonce_odr noundef nonnull align 8 dereferenceable(8) ptr @_ZNSt20_List_const_iteratorIN3gmx29RealFunctionvalueAtCoordinateEEmmEv(ptr noundef nonnull align 8 dereferenceable(8) %0) #1 comdat align 2 {
  %2 = alloca ptr, align 8
  store ptr %0, ptr %2, align 8
  %3 = load ptr, ptr %2, align 8
  %4 = getelementptr inbounds %"struct.std::_List_const_iterator", ptr %3, i32 0, i32 0
  %5 = load ptr, ptr %4, align 8
  %6 = getelementptr inbounds %"struct.std::__detail::_List_node_base", ptr %5, i32 0, i32 1
  %7 = load ptr, ptr %6, align 8
  %8 = getelementptr inbounds %"struct.std::_List_const_iterator", ptr %3, i32 0, i32 0
  store ptr %7, ptr %8, align 8
  ret ptr %3
}

; Function Attrs: mustprogress nounwind uwtable
define linkonce_odr void @_ZNSt16reverse_iteratorISt20_List_const_iteratorIN3gmx29RealFunctionvalueAtCoordinateEEEC2ERKS4_(ptr noundef nonnull align 8 dereferenceable(8) %0, ptr noundef nonnull align 8 dereferenceable(8) %1) unnamed_addr #1 comdat align 2 {
  %3 = alloca ptr, align 8
  %4 = alloca ptr, align 8
  store ptr %0, ptr %3, align 8
  store ptr %1, ptr %4, align 8
  %5 = load ptr, ptr %3, align 8
  %6 = getelementptr inbounds %"class.std::reverse_iterator", ptr %5, i32 0, i32 0
  %7 = load ptr, ptr %4, align 8
  %8 = getelementptr inbounds %"class.std::reverse_iterator", ptr %7, i32 0, i32 0
  call void @llvm.memcpy.p0.p0.i64(ptr align 8 %6, ptr align 8 %8, i64 8, i1 false)
  ret void
}

; Function Attrs: mustprogress uwtable
define linkonce_odr void @_ZSt7advanceISt16reverse_iteratorISt20_List_const_iteratorIN3gmx29RealFunctionvalueAtCoordinateEEElEvRT_T0_(ptr noundef nonnull align 8 dereferenceable(8) %0, i64 noundef %1) #0 comdat {
  %3 = alloca ptr, align 8
  %4 = alloca i64, align 8
  %5 = alloca i64, align 8
  store ptr %0, ptr %3, align 8
  store i64 %1, ptr %4, align 8
  %6 = load i64, ptr %4, align 8
  store i64 %6, ptr %5, align 8
  %7 = load ptr, ptr %3, align 8
  %8 = load i64, ptr %5, align 8
  %9 = load ptr, ptr %3, align 8
  call void @_ZSt19__iterator_categoryISt16reverse_iteratorISt20_List_const_iteratorIN3gmx29RealFunctionvalueAtCoordinateEEEENSt15iterator_traitsIT_E17iterator_categoryERKS7_(ptr noundef nonnull align 8 dereferenceable(8) %9)
  call void @_ZSt9__advanceISt16reverse_iteratorISt20_List_const_iteratorIN3gmx29RealFunctionvalueAtCoordinateEEElEvRT_T0_St26bidirectional_iterator_tag(ptr noundef nonnull align 8 dereferenceable(8) %7, i64 noundef %8)
  ret void
}

; Function Attrs: mustprogress nounwind uwtable
define linkonce_odr void @_ZNKSt7__cxx114listIN3gmx29RealFunctionvalueAtCoordinateESaIS2_EE6rbeginEv(ptr dead_on_unwind noalias writable sret(%"class.std::reverse_iterator") align 8 %0, ptr noundef nonnull align 8 dereferenceable(24) %1) #1 comdat align 2 {
  %3 = alloca ptr, align 8
  %4 = alloca ptr, align 8
  %5 = alloca %"struct.std::_List_const_iterator", align 8
  store ptr %0, ptr %3, align 8
  store ptr %1, ptr %4, align 8
  %6 = load ptr, ptr %4, align 8
  %7 = call ptr @_ZNKSt7__cxx114listIN3gmx29RealFunctionvalueAtCoordinateESaIS2_EE3endEv(ptr noundef nonnull align 8 dereferenceable(24) %6) #12
  %8 = getelementptr inbounds %"struct.std::_List_const_iterator", ptr %5, i32 0, i32 0
  store ptr %7, ptr %8, align 8
  %9 = getelementptr inbounds %"struct.std::_List_const_iterator", ptr %5, i32 0, i32 0
  %10 = load ptr, ptr %9, align 8
  call void @_ZNSt16reverse_iteratorISt20_List_const_iteratorIN3gmx29RealFunctionvalueAtCoordinateEEEC2ES3_(ptr noundef nonnull align 8 dereferenceable(8) %0, ptr %10) #12
  ret void
}

; Function Attrs: mustprogress uwtable
define linkonce_odr noundef ptr @_ZNKSt16reverse_iteratorISt20_List_const_iteratorIN3gmx29RealFunctionvalueAtCoordinateEEEptEv(ptr noundef nonnull align 8 dereferenceable(8) %0) #0 comdat align 2 {
  %2 = alloca ptr, align 8
  %3 = alloca %"struct.std::_List_const_iterator", align 8
  %4 = alloca %"struct.std::_List_const_iterator", align 8
  store ptr %0, ptr %2, align 8
  %5 = load ptr, ptr %2, align 8
  %6 = getelementptr inbounds %"class.std::reverse_iterator", ptr %5, i32 0, i32 0
  call void @llvm.memcpy.p0.p0.i64(ptr align 8 %3, ptr align 8 %6, i64 8, i1 false)
  %7 = call noundef nonnull align 8 dereferenceable(8) ptr @_ZNSt20_List_const_iteratorIN3gmx29RealFunctionvalueAtCoordinateEEmmEv(ptr noundef nonnull align 8 dereferenceable(8) %3) #12
  call void @llvm.memcpy.p0.p0.i64(ptr align 8 %4, ptr align 8 %3, i64 8, i1 false)
  %8 = getelementptr inbounds %"struct.std::_List_const_iterator", ptr %4, i32 0, i32 0
  %9 = load ptr, ptr %8, align 8
  %10 = call noundef ptr @_ZNSt16reverse_iteratorISt20_List_const_iteratorIN3gmx29RealFunctionvalueAtCoordinateEEE13_S_to_pointerIS3_EEPKS2_T_(ptr %9)
  ret ptr %10
}

; Function Attrs: mustprogress uwtable
define linkonce_odr void @_ZSt4nextISt16reverse_iteratorISt20_List_const_iteratorIN3gmx29RealFunctionvalueAtCoordinateEEEET_S6_NSt15iterator_traitsIS6_E15difference_typeE(ptr dead_on_unwind noalias writable sret(%"class.std::reverse_iterator") align 8 %0, ptr noundef %1, i64 noundef %2) #0 comdat {
  %4 = alloca ptr, align 8
  %5 = alloca ptr, align 8
  %6 = alloca i64, align 8
  store ptr %0, ptr %4, align 8
  store ptr %1, ptr %5, align 8
  store i64 %2, ptr %6, align 8
  %7 = load i64, ptr %6, align 8
  call void @_ZSt7advanceISt16reverse_iteratorISt20_List_const_iteratorIN3gmx29RealFunctionvalueAtCoordinateEEElEvRT_T0_(ptr noundef nonnull align 8 dereferenceable(8) %1, i64 noundef %7)
  call void @_ZNSt16reverse_iteratorISt20_List_const_iteratorIN3gmx29RealFunctionvalueAtCoordinateEEEC2ERKS4_(ptr noundef nonnull align 8 dereferenceable(8) %0, ptr noundef nonnull align 8 dereferenceable(8) %1) #12
  ret void
}

; Function Attrs: mustprogress nounwind uwtable
define linkonce_odr void @_ZSt6rbeginINSt7__cxx114listIN3gmx29RealFunctionvalueAtCoordinateESaIS3_EEEEDTcldtfp_6rbeginEERKT_(ptr dead_on_unwind noalias writable sret(%"class.std::reverse_iterator") align 8 %0, ptr noundef nonnull align 8 dereferenceable(24) %1) #1 comdat {
  %3 = alloca ptr, align 8
  %4 = alloca ptr, align 8
  store ptr %0, ptr %3, align 8
  store ptr %1, ptr %4, align 8
  %5 = load ptr, ptr %4, align 8
  call void @_ZNKSt7__cxx114listIN3gmx29RealFunctionvalueAtCoordinateESaIS2_EE6rbeginEv(ptr dead_on_unwind writable sret(%"class.std::reverse_iterator") align 8 %0, ptr noundef nonnull align 8 dereferenceable(24) %5) #12
  ret void
}

; Function Attrs: mustprogress uwtable
define noundef float @_ZNK3gmx17NelderMeadSimplex16secondWorstValueEv(ptr noundef nonnull align 8 dereferenceable(72) %0) #0 align 2 {
  %2 = alloca ptr, align 8
  %3 = alloca %"class.std::reverse_iterator", align 8
  %4 = alloca %"class.std::reverse_iterator", align 8
  store ptr %0, ptr %2, align 8
  %5 = load ptr, ptr %2, align 8
  %6 = getelementptr inbounds %"class.gmx::NelderMeadSimplex", ptr %5, i32 0, i32 0
  call void @_ZSt6rbeginINSt7__cxx114listIN3gmx29RealFunctionvalueAtCoordinateESaIS3_EEEEDTcldtfp_6rbeginEERKT_(ptr dead_on_unwind writable sret(%"class.std::reverse_iterator") align 8 %4, ptr noundef nonnull align 8 dereferenceable(24) %6)
  call void @_ZSt4nextISt16reverse_iteratorISt20_List_const_iteratorIN3gmx29RealFunctionvalueAtCoordinateEEEET_S6_NSt15iterator_traitsIS6_E15difference_typeE(ptr dead_on_unwind writable sret(%"class.std::reverse_iterator") align 8 %3, ptr noundef %4, i64 noundef 1)
  %7 = call noundef ptr @_ZNKSt16reverse_iteratorISt20_List_const_iteratorIN3gmx29RealFunctionvalueAtCoordinateEEEptEv(ptr noundef nonnull align 8 dereferenceable(8) %3)
  %8 = getelementptr inbounds %"struct.gmx::RealFunctionvalueAtCoordinate", ptr %7, i32 0, i32 1
  %9 = load float, ptr %8, align 8
  ret float %9
}