; Function Attrs: mustprogress nofree norecurse nosync nounwind willreturn memory(read, inaccessiblemem: none) uwtable
define noundef float @_ZNK3gmx17NelderMeadSimplex16secondWorstValueEv(ptr nocapture noundef nonnull readonly align 8 dereferenceable(72) %0) local_unnamed_addr #10 align 2 {
_ZSt4nextISt16reverse_iteratorISt20_List_const_iteratorIN3gmx29RealFunctionvalueAtCoordinateEEEET_S6_NSt15iterator_traitsIS6_E15difference_typeE.exit:
  %1 = getelementptr inbounds i8, ptr %0, i64 8
  %2 = load ptr, ptr %1, align 8, !noalias !26
  %3 = getelementptr inbounds i8, ptr %2, i64 8
  %4 = load ptr, ptr %3, align 8
  %5 = getelementptr inbounds i8, ptr %4, i64 40
  %6 = load float, ptr %5, align 8
  ret float %6
}